target datalayout = "e-m:e-p270:32:32-p271:32:32-p272:64:64-i64:64-i128:128-f80:128-n8:16:32:64-S128"
target triple = "x86_64-pc-linux-gnu"

%"class.std::__cxx11::basic_string" = type { %"struct.std::__cxx11::basic_string<char>::_Alloc_hider", i64, %union.anon }
%"struct.std::__cxx11::basic_string<char>::_Alloc_hider" = type { ptr }
%union.anon = type { i64, [8 x i8] }
%class.DfgGraph = type { %class.V3List, %class.V3List.0, %class.V3List.1, i64, i32, i32, ptr, %"class.std::__cxx11::basic_string" }
%class.V3List = type { ptr, ptr }
%class.V3List.0 = type { ptr, ptr }
%class.V3List.1 = type { ptr, ptr }
%class.DfgVertex = type { ptr, %class.V3ListLinks, ptr, ptr, ptr, ptr, %class.VDfgType, i32, ptr }
%class.V3ListLinks = type { ptr, ptr }
%class.VDfgType = type { i16 }
%class.DfgEdge = type { ptr, ptr, ptr, ptr }
%class.V3Hash = type { i32 }
%"struct.std::pair.88" = type { ptr, i64 }
%class.AstNode = type { ptr, ptr, ptr, ptr, ptr, ptr, ptr, ptr, %class.VNType, %struct.anon, i8, i32, ptr, ptr, ptr, ptr, %class.VNUser, i32, i32, %class.VNUser, %class.VNUser, i32, i32, %class.VNUser }
%class.VNType = type { i16 }
%struct.anon = type { i8 }
%class.VNUser = type { %union.anon.2 }
%union.anon.2 = type { ptr }
%class.AstNodeDType = type <{ %class.AstNode, i32, i32, %class.VSigning, i8, [6 x i8] }>
%class.VSigning = type { i8 }

; Function Attrs: mustprogress nounwind uwtable
define linkonce_odr dso_local void @_ZN6V3HashC2Ej(ptr noundef nonnull align 4 dereferenceable(4) %0, i32 noundef %1) unnamed_addr #5 comdat align 2 {
  %3 = alloca ptr, align 8
  %4 = alloca i32, align 4
  store ptr %0, ptr %3, align 8
  store i32 %1, ptr %4, align 4
  %5 = load ptr, ptr %3, align 8
  %6 = getelementptr inbounds %class.V3Hash, ptr %5, i32 0, i32 0
  %7 = load i32, ptr %4, align 4
  store i32 %7, ptr %6, align 4
  ret void
}

; Function Attrs: mustprogress nounwind uwtable
define linkonce_odr dso_local noundef i32 @_ZN6V3Hash7combineEjj(i32 noundef %0, i32 noundef %1) #5 comdat align 2 {
  %3 = alloca i32, align 4
  %4 = alloca i32, align 4
  store i32 %0, ptr %3, align 4
  store i32 %1, ptr %4, align 4
  %5 = load i32, ptr %3, align 4
  %6 = load i32, ptr %4, align 4
  %7 = add i32 %6, -1640531527
  %8 = load i32, ptr %3, align 4
  %9 = shl i32 %8, 6
  %10 = add i32 %7, %9
  %11 = load i32, ptr %3, align 4
  %12 = lshr i32 %11, 2
  %13 = add i32 %10, %12
  %14 = xor i32 %5, %13
  ret i32 %14
}

; Function Attrs: mustprogress nounwind uwtable
define linkonce_odr dso_local void @_ZN6V3HashC2Ei(ptr noundef nonnull align 4 dereferenceable(4) %0, i32 noundef %1) unnamed_addr #5 comdat align 2 {
  %3 = alloca ptr, align 8
  %4 = alloca i32, align 4
  store ptr %0, ptr %3, align 8
  store i32 %1, ptr %4, align 4
  %5 = load ptr, ptr %3, align 8
  %6 = getelementptr inbounds %class.V3Hash, ptr %5, i32 0, i32 0
  %7 = load i32, ptr %4, align 4
  store i32 %7, ptr %6, align 4
  ret void
}

; Function Attrs: mustprogress nounwind uwtable
define linkonce_odr dso_local noundef zeroext i16 @_ZNK8VDfgTypecvNS_2enEEv(ptr noundef nonnull align 2 dereferenceable(2) %0) #5 comdat align 2 {
  %2 = alloca ptr, align 8
  store ptr %0, ptr %2, align 8
  %3 = load ptr, ptr %2, align 8
  %4 = getelementptr inbounds %class.VDfgType, ptr %3, i32 0, i32 0
  %5 = load i16, ptr %4, align 2
  ret i16 %5
}

; Function Attrs: mustprogress nounwind uwtable
define linkonce_odr dso_local i16 @_ZNK9DfgVertex4typeEv(ptr noundef nonnull align 8 dereferenceable(72) %0) #5 comdat align 2 {
  %2 = alloca %class.VDfgType, align 2
  %3 = alloca ptr, align 8
  store ptr %0, ptr %3, align 8
  %4 = load ptr, ptr %3, align 8
  %5 = getelementptr inbounds %class.DfgVertex, ptr %4, i32 0, i32 6
  call void @llvm.memcpy.p0.p0.i64(ptr align 2 %2, ptr align 8 %5, i64 2, i1 false)
  %6 = getelementptr inbounds %class.VDfgType, ptr %2, i32 0, i32 0
  %7 = load i16, ptr %6, align 2
  ret i16 %7
}

; Function Attrs: mustprogress uwtable
define linkonce_odr dso_local i32 @_ZNK6V3HashplIS_EES_T_(ptr noundef nonnull align 4 dereferenceable(4) %0, i32 %1) #4 comdat align 2 {
  %3 = alloca %class.V3Hash, align 4
  %4 = alloca %class.V3Hash, align 4
  %5 = alloca ptr, align 8
  %6 = alloca %class.V3Hash, align 4
  %7 = getelementptr inbounds %class.V3Hash, ptr %4, i32 0, i32 0
  store i32 %1, ptr %7, align 4
  store ptr %0, ptr %5, align 8
  %8 = load ptr, ptr %5, align 8
  %9 = getelementptr inbounds %class.V3Hash, ptr %8, i32 0, i32 0
  %10 = load i32, ptr %9, align 4
  call void @llvm.memcpy.p0.p0.i64(ptr align 4 %6, ptr align 4 %4, i64 4, i1 false)
  %11 = getelementptr inbounds %class.V3Hash, ptr %6, i32 0, i32 0
  %12 = load i32, ptr %11, align 4
  %13 = call noundef i32 @_ZN6V3Hash7combineEjj(i32 noundef %10, i32 noundef %12)
  call void @_ZN6V3HashC2Ej(ptr noundef nonnull align 4 dereferenceable(4) %3, i32 noundef %13)
  %14 = getelementptr inbounds %class.V3Hash, ptr %3, i32 0, i32 0
  %15 = load i32, ptr %14, align 4
  ret i32 %15
}

; Function Attrs: mustprogress uwtable
define linkonce_odr dso_local i32 @_ZNK6V3HashplIjEES_T_(ptr noundef nonnull align 4 dereferenceable(4) %0, i32 noundef %1) #4 comdat align 2 {
  %3 = alloca %class.V3Hash, align 4
  %4 = alloca ptr, align 8
  %5 = alloca i32, align 4
  %6 = alloca %class.V3Hash, align 4
  store ptr %0, ptr %4, align 8
  store i32 %1, ptr %5, align 4
  %7 = load ptr, ptr %4, align 8
  %8 = getelementptr inbounds %class.V3Hash, ptr %7, i32 0, i32 0
  %9 = load i32, ptr %8, align 4
  %10 = load i32, ptr %5, align 4
  call void @_ZN6V3HashC2Ej(ptr noundef nonnull align 4 dereferenceable(4) %6, i32 noundef %10)
  %11 = getelementptr inbounds %class.V3Hash, ptr %6, i32 0, i32 0
  %12 = load i32, ptr %11, align 4
  %13 = call noundef i32 @_ZN6V3Hash7combineEjj(i32 noundef %9, i32 noundef %12)
  call void @_ZN6V3HashC2Ej(ptr noundef nonnull align 4 dereferenceable(4) %3, i32 noundef %13)
  %14 = getelementptr inbounds %class.V3Hash, ptr %3, i32 0, i32 0
  %15 = load i32, ptr %14, align 4
  ret i32 %15
}

; Function Attrs: mustprogress nounwind uwtable
define linkonce_odr dso_local noundef i32 @_ZNK12AstNodeDType5widthEv(ptr noundef nonnull align 8 dereferenceable(162) %0) #5 comdat align 2 {
  %2 = alloca ptr, align 8
  store ptr %0, ptr %2, align 8
  %3 = load ptr, ptr %2, align 8
  %4 = getelementptr inbounds %class.AstNodeDType, ptr %3, i32 0, i32 1
  %5 = load i32, ptr %4, align 8
  ret i32 %5
}

; Function Attrs: mustprogress nounwind uwtable
define linkonce_odr dso_local noundef ptr @_ZNK9DfgVertex6dtypepEv(ptr noundef nonnull align 8 dereferenceable(72) %0) #5 comdat align 2 {
  %2 = alloca ptr, align 8
  store ptr %0, ptr %2, align 8
  %3 = load ptr, ptr %2, align 8
  %4 = getelementptr inbounds %class.DfgVertex, ptr %3, i32 0, i32 4
  %5 = load ptr, ptr %4, align 8
  ret ptr %5
}

; Function Attrs: mustprogress uwtable
define linkonce_odr dso_local i32 @_ZNK6V3HashplI8VDfgTypeEES_T_(ptr noundef nonnull align 4 dereferenceable(4) %0, i16 %1) #4 comdat align 2 {
  %3 = alloca %class.V3Hash, align 4
  %4 = alloca %class.VDfgType, align 2
  %5 = alloca ptr, align 8
  %6 = alloca %class.V3Hash, align 4
  %7 = getelementptr inbounds %class.VDfgType, ptr %4, i32 0, i32 0
  store i16 %1, ptr %7, align 2
  store ptr %0, ptr %5, align 8
  %8 = load ptr, ptr %5, align 8
  %9 = getelementptr inbounds %class.V3Hash, ptr %8, i32 0, i32 0
  %10 = load i32, ptr %9, align 4
  %11 = call noundef zeroext i16 @_ZNK8VDfgTypecvNS_2enEEv(ptr noundef nonnull align 2 dereferenceable(2) %4)
  %12 = zext i16 %11 to i32
  call void @_ZN6V3HashC2Ei(ptr noundef nonnull align 4 dereferenceable(4) %6, i32 noundef %12)
  %13 = getelementptr inbounds %class.V3Hash, ptr %6, i32 0, i32 0
  %14 = load i32, ptr %13, align 4
  %15 = call noundef i32 @_ZN6V3Hash7combineEjj(i32 noundef %10, i32 noundef %14)
  call void @_ZN6V3HashC2Ej(ptr noundef nonnull align 4 dereferenceable(4) %3, i32 noundef %15)
  %16 = getelementptr inbounds %class.V3Hash, ptr %3, i32 0, i32 0
  %17 = load i32, ptr %16, align 4
  ret i32 %17
}

; Function Attrs: mustprogress nounwind uwtable
define linkonce_odr dso_local noundef zeroext i1 @_ZN9DfgVertex15privateTypeTestI12DfgVertexVarEEbPKS_(ptr noundef %0) #5 comdat align 2 {
  %2 = alloca ptr, align 8
  %3 = alloca %class.VDfgType, align 2
  %4 = alloca %class.VDfgType, align 2
  store ptr %0, ptr %2, align 8
  %5 = load ptr, ptr %2, align 8
  %6 = call i16 @_ZNK9DfgVertex4typeEv(ptr noundef nonnull align 8 dereferenceable(72) %5)
  %7 = getelementptr inbounds %class.VDfgType, ptr %3, i32 0, i32 0
  store i16 %6, ptr %7, align 2
  %8 = call noundef zeroext i16 @_ZNK8VDfgTypecvNS_2enEEv(ptr noundef nonnull align 2 dereferenceable(2) %3)
  %9 = zext i16 %8 to i32
  %10 = icmp sge i32 %9, 152
  br i1 %10, label %11, label %18

11:                                               ; preds = %1
  %12 = load ptr, ptr %2, align 8
  %13 = call i16 @_ZNK9DfgVertex4typeEv(ptr noundef nonnull align 8 dereferenceable(72) %12)
  %14 = getelementptr inbounds %class.VDfgType, ptr %4, i32 0, i32 0
  store i16 %13, ptr %14, align 2
  %15 = call noundef zeroext i16 @_ZNK8VDfgTypecvNS_2enEEv(ptr noundef nonnull align 2 dereferenceable(2) %4)
  %16 = zext i16 %15 to i32
  %17 = icmp sle i32 %16, 153
  br label %18

18:                                               ; preds = %11, %1
  %19 = phi i1 [ false, %1 ], [ %17, %11 ]
  ret i1 %19
}

; Function Attrs: mustprogress nounwind uwtable
define linkonce_odr dso_local void @_ZN6V3HashC2Ev(ptr noundef nonnull align 4 dereferenceable(4) %0) unnamed_addr #5 comdat align 2 {
  %2 = alloca ptr, align 8
  store ptr %0, ptr %2, align 8
  %3 = load ptr, ptr %2, align 8
  %4 = getelementptr inbounds %class.V3Hash, ptr %3, i32 0, i32 0
  store i32 0, ptr %4, align 4
  ret void
}

; Function Attrs: mustprogress uwtable
define linkonce_odr dso_local noundef nonnull align 4 dereferenceable(4) ptr @_ZN6V3HashpLIS_EERS_T_(ptr noundef nonnull align 4 dereferenceable(4) %0, i32 %1) #4 comdat align 2 {
  %3 = alloca %class.V3Hash, align 4
  %4 = alloca ptr, align 8
  %5 = alloca %class.V3Hash, align 4
  %6 = alloca %class.V3Hash, align 4
  %7 = getelementptr inbounds %class.V3Hash, ptr %3, i32 0, i32 0
  store i32 %1, ptr %7, align 4
  store ptr %0, ptr %4, align 8
  %8 = load ptr, ptr %4, align 8
  call void @llvm.memcpy.p0.p0.i64(ptr align 4 %6, ptr align 4 %3, i64 4, i1 false)
  %9 = getelementptr inbounds %class.V3Hash, ptr %6, i32 0, i32 0
  %10 = load i32, ptr %9, align 4
  %11 = call i32 @_ZNK6V3HashplIS_EES_T_(ptr noundef nonnull align 4 dereferenceable(4) %8, i32 %10)
  %12 = getelementptr inbounds %class.V3Hash, ptr %5, i32 0, i32 0
  store i32 %11, ptr %12, align 4
  call void @llvm.memcpy.p0.p0.i64(ptr align 4 %8, ptr align 4 %5, i64 4, i1 false)
  ret ptr %8
}

; Function Attrs: mustprogress uwtable
define linkonce_odr dso_local noundef nonnull align 4 dereferenceable(4) ptr @_ZN6V3HashpLIjEERS_T_(ptr noundef nonnull align 4 dereferenceable(4) %0, i32 noundef %1) #4 comdat align 2 {
  %3 = alloca ptr, align 8
  %4 = alloca i32, align 4
  %5 = alloca %class.V3Hash, align 4
  store ptr %0, ptr %3, align 8
  store i32 %1, ptr %4, align 4
  %6 = load ptr, ptr %3, align 8
  %7 = load i32, ptr %4, align 4
  %8 = call i32 @_ZNK6V3HashplIjEES_T_(ptr noundef nonnull align 4 dereferenceable(4) %6, i32 noundef %7)
  %9 = getelementptr inbounds %class.V3Hash, ptr %5, i32 0, i32 0
  store i32 %8, ptr %9, align 4
  call void @llvm.memcpy.p0.p0.i64(ptr align 4 %6, ptr align 4 %5, i64 4, i1 false)
  ret ptr %6
}

; Function Attrs: mustprogress uwtable
define linkonce_odr dso_local noundef i32 @_ZNK9DfgVertex5widthEv(ptr noundef nonnull align 8 dereferenceable(72) %0) #4 comdat align 2 {
  %2 = alloca ptr, align 8
  store ptr %0, ptr %2, align 8
  %3 = load ptr, ptr %2, align 8
  br label %4

4:                                                ; preds = %1
  br label %5

5:                                                ; preds = %4
  %6 = call noundef ptr @_ZNK9DfgVertex6dtypepEv(ptr noundef nonnull align 8 dereferenceable(72) %3)
  %7 = call noundef i32 @_ZNK12AstNodeDType5widthEv(ptr noundef nonnull align 8 dereferenceable(162) %6)
  ret i32 %7
}

; Function Attrs: mustprogress uwtable
define linkonce_odr dso_local noundef nonnull align 4 dereferenceable(4) ptr @_ZN6V3HashpLI8VDfgTypeEERS_T_(ptr noundef nonnull align 4 dereferenceable(4) %0, i16 %1) #4 comdat align 2 {
  %3 = alloca %class.VDfgType, align 2
  %4 = alloca ptr, align 8
  %5 = alloca %class.V3Hash, align 4
  %6 = alloca %class.VDfgType, align 2
  %7 = getelementptr inbounds %class.VDfgType, ptr %3, i32 0, i32 0
  store i16 %1, ptr %7, align 2
  store ptr %0, ptr %4, align 8
  %8 = load ptr, ptr %4, align 8
  call void @llvm.memcpy.p0.p0.i64(ptr align 2 %6, ptr align 2 %3, i64 2, i1 false)
  %9 = getelementptr inbounds %class.VDfgType, ptr %6, i32 0, i32 0
  %10 = load i16, ptr %9, align 2
  %11 = call i32 @_ZNK6V3HashplI8VDfgTypeEES_T_(ptr noundef nonnull align 4 dereferenceable(4) %8, i16 %10)
  %12 = getelementptr inbounds %class.V3Hash, ptr %5, i32 0, i32 0
  store i32 %11, ptr %12, align 4
  call void @llvm.memcpy.p0.p0.i64(ptr align 4 %8, ptr align 4 %5, i64 4, i1 false)
  ret ptr %8
}

; Function Attrs: mustprogress uwtable
define linkonce_odr dso_local noundef zeroext i1 @_ZNK9DfgVertex2isI12DfgVertexVarEEbv(ptr noundef nonnull align 8 dereferenceable(72) %0) #4 comdat align 2 {
  %2 = alloca ptr, align 8
  store ptr %0, ptr %2, align 8
  %3 = load ptr, ptr %2, align 8
  %4 = call noundef zeroext i1 @_ZN9DfgVertex15privateTypeTestI12DfgVertexVarEEbPKS_(ptr noundef %3)
  ret i1 %4
}

; Function Attrs: mustprogress nounwind uwtable
define linkonce_odr dso_local noundef i32 @_ZNK6V3Hash5valueEv(ptr noundef nonnull align 4 dereferenceable(4) %0) #5 comdat align 2 {
  %2 = alloca ptr, align 8
  store ptr %0, ptr %2, align 8
  %3 = load ptr, ptr %2, align 8
  %4 = getelementptr inbounds %class.V3Hash, ptr %3, i32 0, i32 0
  %5 = load i32, ptr %4, align 4
  ret i32 %5
}

; Function Attrs: mustprogress uwtable
define linkonce_odr dso_local noundef nonnull align 4 dereferenceable(4) ptr @_ZN9DfgVertex4userI6V3HashEERT_v(ptr noundef nonnull align 8 dereferenceable(72) %0) #4 comdat align 2 {
  %2 = alloca ptr, align 8
  %3 = alloca ptr, align 8
  %4 = alloca i32, align 4
  %5 = alloca ptr, align 8
  store ptr %0, ptr %2, align 8
  %6 = load ptr, ptr %2, align 8
  %7 = getelementptr inbounds %class.DfgVertex, ptr %6, i32 0, i32 8
  store ptr %7, ptr %3, align 8
  %8 = getelementptr inbounds %class.DfgVertex, ptr %6, i32 0, i32 5
  %9 = load ptr, ptr %8, align 8
  %10 = getelementptr inbounds %class.DfgGraph, ptr %9, i32 0, i32 4
  %11 = load i32, ptr %10, align 8
  store i32 %11, ptr %4, align 4
  br label %12

12:                                               ; preds = %1
  br label %13

13:                                               ; preds = %12
  %14 = getelementptr inbounds %class.DfgVertex, ptr %6, i32 0, i32 7
  %15 = load i32, ptr %14, align 4
  %16 = load i32, ptr %4, align 4
  %17 = icmp ne i32 %15, %16
  br i1 %17, label %18, label %24

18:                                               ; preds = %13
  %19 = load i32, ptr %4, align 4
  %20 = getelementptr inbounds %class.DfgVertex, ptr %6, i32 0, i32 7
  store i32 %19, ptr %20, align 4
  %21 = load ptr, ptr %3, align 8
  call void @_ZN6V3HashC2Ev(ptr noundef nonnull align 4 dereferenceable(4) %21)
  store ptr %21, ptr %5, align 8
  br label %22

22:                                               ; preds = %18
  br label %23

23:                                               ; preds = %22
  br label %24

24:                                               ; preds = %23, %13
  %25 = load ptr, ptr %3, align 8
  ret ptr %25
}

; Function Attrs: mustprogress uwtable
define dso_local i32 @_ZN9DfgVertex4hashEv(ptr noundef nonnull align 8 dereferenceable(72) %0) #4 align 2 {
  %2 = alloca %class.V3Hash, align 4
  %3 = alloca ptr, align 8
  %4 = alloca ptr, align 8
  %5 = alloca %class.V3Hash, align 4
  %6 = alloca %class.VDfgType, align 2
  %7 = alloca %"struct.std::pair.88", align 8
  %8 = alloca ptr, align 8
  %9 = alloca i64, align 8
  %10 = alloca i64, align 8
  %11 = alloca %class.V3Hash, align 4
  store ptr %0, ptr %3, align 8
  %12 = load ptr, ptr %3, align 8
  %13 = call noundef nonnull align 4 dereferenceable(4) ptr @_ZN9DfgVertex4userI6V3HashEERT_v(ptr noundef nonnull align 8 dereferenceable(72) %12)
  store ptr %13, ptr %4, align 8
  %14 = load ptr, ptr %4, align 8
  %15 = call noundef i32 @_ZNK6V3Hash5valueEv(ptr noundef nonnull align 4 dereferenceable(4) %14)
  %16 = icmp ne i32 %15, 0
  br i1 %16, label %64, label %17

17:                                               ; preds = %1
  %18 = load ptr, ptr %12, align 8
  %19 = getelementptr inbounds ptr, ptr %18, i64 4
  %20 = load ptr, ptr %19, align 8
  %21 = call i32 %20(ptr noundef nonnull align 8 dereferenceable(72) %12)
  %22 = getelementptr inbounds %class.V3Hash, ptr %5, i32 0, i32 0
  store i32 %21, ptr %22, align 4
  %23 = call noundef zeroext i1 @_ZNK9DfgVertex2isI12DfgVertexVarEEbv(ptr noundef nonnull align 8 dereferenceable(72) %12)
  br i1 %23, label %62, label %24

24:                                               ; preds = %17
  %25 = getelementptr inbounds %class.DfgVertex, ptr %12, i32 0, i32 6
  call void @llvm.memcpy.p0.p0.i64(ptr align 2 %6, ptr align 8 %25, i64 2, i1 false)
  %26 = getelementptr inbounds %class.VDfgType, ptr %6, i32 0, i32 0
  %27 = load i16, ptr %26, align 2
  %28 = call noundef nonnull align 4 dereferenceable(4) ptr @_ZN6V3HashpLI8VDfgTypeEERS_T_(ptr noundef nonnull align 4 dereferenceable(4) %5, i16 %27)
  %29 = call noundef i32 @_ZNK9DfgVertex5widthEv(ptr noundef nonnull align 8 dereferenceable(72) %12)
  %30 = call noundef nonnull align 4 dereferenceable(4) ptr @_ZN6V3HashpLIjEERS_T_(ptr noundef nonnull align 4 dereferenceable(4) %5, i32 noundef %29)
  %31 = load ptr, ptr %12, align 8
  %32 = getelementptr inbounds ptr, ptr %31, i64 5
  %33 = load ptr, ptr %32, align 8
  %34 = call { ptr, i64 } %33(ptr noundef nonnull align 8 dereferenceable(72) %12)
  %35 = getelementptr inbounds { ptr, i64 }, ptr %7, i32 0, i32 0
  %36 = extractvalue { ptr, i64 } %34, 0
  store ptr %36, ptr %35, align 8
  %37 = getelementptr inbounds { ptr, i64 }, ptr %7, i32 0, i32 1
  %38 = extractvalue { ptr, i64 } %34, 1
  store i64 %38, ptr %37, align 8
  %39 = getelementptr inbounds %"struct.std::pair.88", ptr %7, i32 0, i32 0
  %40 = load ptr, ptr %39, align 8
  store ptr %40, ptr %8, align 8
  %41 = getelementptr inbounds %"struct.std::pair.88", ptr %7, i32 0, i32 1
  %42 = load i64, ptr %41, align 8
  store i64 %42, ptr %9, align 8
  store i64 0, ptr %10, align 8
  br label %43

43:                                               ; preds = %58, %24
  %44 = load i64, ptr %10, align 8
  %45 = load i64, ptr %9, align 8
  %46 = icmp ult i64 %44, %45
  br i1 %46, label %47, label %61

47:                                               ; preds = %43
  %48 = load ptr, ptr %8, align 8
  %49 = load i64, ptr %10, align 8
  %50 = getelementptr inbounds %class.DfgEdge, ptr %48, i64 %49
  %51 = getelementptr inbounds %class.DfgEdge, ptr %50, i32 0, i32 2
  %52 = load ptr, ptr %51, align 8
  %53 = call i32 @_ZN9DfgVertex4hashEv(ptr noundef nonnull align 8 dereferenceable(72) %52)
  %54 = getelementptr inbounds %class.V3Hash, ptr %11, i32 0, i32 0
  store i32 %53, ptr %54, align 4
  %55 = getelementptr inbounds %class.V3Hash, ptr %11, i32 0, i32 0
  %56 = load i32, ptr %55, align 4
  %57 = call noundef nonnull align 4 dereferenceable(4) ptr @_ZN6V3HashpLIS_EERS_T_(ptr noundef nonnull align 4 dereferenceable(4) %5, i32 %56)
  br label %58

58:                                               ; preds = %47
  %59 = load i64, ptr %10, align 8
  %60 = add i64 %59, 1
  store i64 %60, ptr %10, align 8
  br label %43, !llvm.loop !8

61:                                               ; preds = %43
  br label %62

62:                                               ; preds = %61, %17
  %63 = load ptr, ptr %4, align 8
  call void @llvm.memcpy.p0.p0.i64(ptr align 4 %63, ptr align 4 %5, i64 4, i1 false)
  br label %64

64:                                               ; preds = %62, %1
  %65 = load ptr, ptr %4, align 8
  call void @llvm.memcpy.p0.p0.i64(ptr align 4 %2, ptr align 4 %65, i64 4, i1 false)
  %66 = getelementptr inbounds %class.V3Hash, ptr %2, i32 0, i32 0
  %67 = load i32, ptr %66, align 4
  ret i32 %67
}