; Function Attrs: mustprogress uwtable
define dso_local i32 @_ZN9DfgVertex4hashEv(ptr noundef nonnull align 8 dereferenceable(72) %0) #3 align 2 {
  %2 = getelementptr inbounds i8, ptr %0, i64 64
  %3 = getelementptr inbounds i8, ptr %0, i64 48
  %4 = load ptr, ptr %3, align 8
  %5 = getelementptr inbounds i8, ptr %4, i64 56
  %6 = load i32, ptr %5, align 8
  %7 = getelementptr inbounds i8, ptr %0, i64 60
  %8 = load i32, ptr %7, align 4
  %.not.i = icmp eq i32 %8, %6
  br i1 %.not.i, label %_ZN9DfgVertex4userI6V3HashEERT_v.exit, label %_ZN9DfgVertex4userI6V3HashEERT_v.exit.thread

_ZN9DfgVertex4userI6V3HashEERT_v.exit.thread:     ; preds = %1
  store i32 %6, ptr %7, align 4
  store i32 0, ptr %2, align 8
  br label %9

_ZN9DfgVertex4userI6V3HashEERT_v.exit:            ; preds = %1
  %.pr = load i32, ptr %2, align 8
  %.not = icmp eq i32 %.pr, 0
  br i1 %.not, label %9, label %50

9:                                                ; preds = %_ZN9DfgVertex4userI6V3HashEERT_v.exit.thread, %_ZN9DfgVertex4userI6V3HashEERT_v.exit
  %10 = load ptr, ptr %0, align 8
  %11 = getelementptr inbounds i8, ptr %10, i64 32
  %12 = load ptr, ptr %11, align 8
  %13 = tail call i32 %12(ptr noundef nonnull align 8 dereferenceable(72) %0)
  %14 = getelementptr inbounds i8, ptr %0, i64 56
  %.sroa.0.0.copyload.i.i.i = load i16, ptr %14, align 8
  %15 = and i16 %.sroa.0.0.copyload.i.i.i, -2
  %spec.select.i.i = icmp eq i16 %15, 152
  br i1 %spec.select.i.i, label %.loopexit, label %16

16:                                               ; preds = %9
  %17 = zext i16 %.sroa.0.0.copyload.i.i.i to i32
  %18 = shl i32 %13, 6
  %19 = lshr i32 %13, 2
  %20 = add i32 %18, -1640531527
  %21 = add i32 %20, %19
  %22 = add i32 %21, %17
  %23 = xor i32 %22, %13
  %24 = getelementptr inbounds i8, ptr %0, i64 40
  %25 = load ptr, ptr %24, align 8
  %26 = getelementptr inbounds i8, ptr %25, i64 152
  %27 = load i32, ptr %26, align 8
  %28 = shl i32 %23, 6
  %29 = lshr i32 %23, 2
  %30 = add i32 %28, -1640531527
  %31 = add i32 %30, %29
  %32 = add i32 %31, %27
  %33 = xor i32 %32, %23
  %34 = load ptr, ptr %0, align 8
  %35 = getelementptr inbounds i8, ptr %34, i64 40
  %36 = load ptr, ptr %35, align 8
  %37 = tail call { ptr, i64 } %36(ptr noundef nonnull align 8 dereferenceable(72) %0)
  %38 = extractvalue { ptr, i64 } %37, 0
  %39 = extractvalue { ptr, i64 } %37, 1
  %.not17 = icmp eq i64 %39, 0
  br i1 %.not17, label %.loopexit, label %.lr.ph

.lr.ph:                                           ; preds = %16, %.lr.ph
  %.016 = phi i64 [ %49, %.lr.ph ], [ 0, %16 ]
  %.sroa.0.015 = phi i32 [ %48, %.lr.ph ], [ %33, %16 ]
  %40 = getelementptr inbounds %class.DfgEdge, ptr %38, i64 %.016, i32 2
  %41 = load ptr, ptr %40, align 8
  %42 = tail call i32 @_ZN9DfgVertex4hashEv(ptr noundef nonnull align 8 dereferenceable(72) %41)
  %43 = shl i32 %.sroa.0.015, 6
  %44 = lshr i32 %.sroa.0.015, 2
  %45 = add i32 %43, -1640531527
  %46 = add i32 %45, %44
  %47 = add i32 %46, %42
  %48 = xor i32 %47, %.sroa.0.015
  %49 = add nuw i64 %.016, 1
  %exitcond.not = icmp eq i64 %49, %39
  br i1 %exitcond.not, label %.loopexit, label %.lr.ph, !llvm.loop !12

.loopexit:                                        ; preds = %.lr.ph, %16, %9
  %.sroa.0.1 = phi i32 [ %13, %9 ], [ %33, %16 ], [ %48, %.lr.ph ]
  store i32 %.sroa.0.1, ptr %2, align 8
  br label %50

50:                                               ; preds = %.loopexit, %_ZN9DfgVertex4userI6V3HashEERT_v.exit
  %.sroa.010.0.copyload = phi i32 [ %.sroa.0.1, %.loopexit ], [ %.pr, %_ZN9DfgVertex4userI6V3HashEERT_v.exit ]
  ret i32 %.sroa.010.0.copyload
}